(dp0
S'/pdb\\pdb.goldman.csv'
p1
(dp2
S'HandsPlayed'
p3
I0
sS'NumRaises'
p4
I0
sS'GamesPlayed'
p5
I0
sS'NumCalls'
p6
I0
ssS'/pdb\\pdb.ren[1].csv'
p7
(dp8
g3
I0
sg4
I0
sg5
I0
sg6
I0
ssS'/pdb\\pdb.sager[2].csv'
p9
(dp10
g3
I0
sg4
I0
sg5
I0
sg6
I0
ssS'/pdb\\pdb.fmBandit.csv'
p11
(dp12
g3
I0
sg4
I0
sg5
I0
sg6
I0
ssS'/pdb\\pdb.evercall.csv'
p13
(dp14
g3
I0
sg4
I0
sg5
I0
sg6
I0
ssS'/pdb\\pdb.munch[0].csv'
p15
(dp16
g3
I0
sg4
I0
sg5
I0
sg6
I0
ssS'/pdb\\pdb.propdude.csv'
p17
(dp18
g3
I0
sg4
I0
sg5
I0
sg6
I0
ssS'/pdb\\pdb.meeee.csv'
p19
(dp20
g3
I0
sg4
I0
sg5
I0
sg6
I0
ssS'/pdb\\pdb.sager[4].csv'
p21
(dp22
g3
I0
sg4
I0
sg5
I0
sg6
I0
ssS'/pdb\\pdb.Devoid.csv'
p23
(dp24
g3
I0
sg4
I0
sg5
I0
sg6
I0
ssS'/pdb\\pdb.num.csv'
p25
(dp26
g3
I0
sg4
I0
sg5
I0
sg6
I0
ssS'/pdb\\pdb.darsex.csv'
p27
(dp28
g3
I0
sg4
I0
sg5
I0
sg6
I0
ssS'/pdb\\pdb.doc_doc.csv'
p29
(dp30
g3
I0
sg4
I0
sg5
I0
sg6
I0
ssS'/pdb\\pdb.iceness.csv'
p31
(dp32
g3
I0
sg4
I0
sg5
I0
sg6
I0
ssS'/pdb\\pdb.deadman.csv'
p33
(dp34
g3
I0
sg4
I0
sg5
I0
sg6
I0
ssS'/pdb\\pdb.bagTHIS.csv'
p35
(dp36
g3
I0
sg4
I0
sg5
I0
sg6
I0
ssS'/pdb\\pdb.drr.csv'
p37
(dp38
g3
I0
sg4
I0
sg5
I0
sg6
I0
ssS'/pdb\\pdb.EdK.csv'
p39
(dp40
g3
I0
sg4
I0
sg5
I0
sg6
I0
ssS'/pdb\\pdb.sippy.csv'
p41
(dp42
g3
I0
sg4
I0
sg5
I0
sg6
I0
ssS'/pdb\\pdb.Lev.csv'
p43
(dp44
g3
I0
sg4
I0
sg5
I0
sg6
I0
ssS'/pdb\\pdb.PooBah.csv'
p45
(dp46
g3
I0
sg4
I0
sg5
I0
sg6
I0
ssS'/pdb\\pdb.fatal.csv'
p47
(dp48
g3
I0
sg4
I0
sg5
I0
sg6
I0
ssS'/pdb\\pdb.wheelboy.csv'
p49
(dp50
g3
I0
sg4
I0
sg5
I0
sg6
I0
ssS'/pdb\\pdb.suds.csv'
p51
(dp52
g3
I0
sg4
I0
sg5
I0
sg6
I0
ssS'/pdb\\pdb.FuzzyFish.csv'
p53
(dp54
g3
I0
sg4
I0
sg5
I0
sg6
I0
ssS'/pdb\\pdb.tgp.csv'
p55
(dp56
g3
I0
sg4
I0
sg5
I0
sg6
I0
ssS'/pdb\\pdb.BradR.csv'
p57
(dp58
g3
I0
sg4
I0
sg5
I0
sg6
I0
ssS'/pdb\\pdb.painful.csv'
p59
(dp60
g3
I0
sg4
I0
sg5
I0
sg6
I0
ssS'/pdb\\pdb.Kevin.csv'
p61
(dp62
g3
I0
sg4
I0
sg5
I0
sg6
I0
ssS'/pdb\\pdb.aida.csv'
p63
(dp64
g3
I0
sg4
I0
sg5
I0
sg6
I0
ssS'/pdb\\pdb.ATM.csv'
p65
(dp66
g3
I0
sg4
I0
sg5
I0
sg6
I0
ssS'/pdb\\pdb.jpm.csv'
p67
(dp68
g3
I0
sg4
I0
sg5
I0
sg6
I0
ssS'/pdb\\pdb.will[].csv'
p69
(dp70
g3
I0
sg4
I0
sg5
I0
sg6
I0
ssS'/pdb\\pdb.Schween.csv'
p71
(dp72
g3
I0
sg4
I0
sg5
I0
sg6
I0
ssS'/pdb\\pdb.DM.csv'
p73
(dp74
g3
I0
sg4
I0
sg5
I0
sg6
I0
ssS'/pdb\\pdb.gcy.csv'
p75
(dp76
g3
I0
sg4
I0
sg5
I0
sg6
I0
ssS'/pdb\\pdb.geg.csv'
p77
(dp78
g3
I0
sg4
I0
sg5
I0
sg6
I0
ssS'/pdb\\pdb.crazieer.csv'
p79
(dp80
g3
I0
sg4
I0
sg5
I0
sg6
I0
ssS'/pdb\\pdb.po147.csv'
p81
(dp82
g3
I0
sg4
I0
sg5
I0
sg6
I0
ssS'/pdb\\pdb.Filaman.csv'
p83
(dp84
g3
I0
sg4
I0
sg5
I0
sg6
I0
ssS'/pdb\\pdb.nuxi.csv'
p85
(dp86
g3
I0
sg4
I0
sg5
I0
sg6
I0
ssS'/pdb\\pdb.y.csv'
p87
(dp88
g3
I0
sg4
I0
sg5
I0
sg6
I0
ssS'/pdb\\pdb.sager[1].csv'
p89
(dp90
g3
I0
sg4
I0
sg5
I0
sg6
I0
ssS'/pdb\\pdb.WC^bot.csv'
p91
(dp92
g3
I0
sg4
I0
sg5
I0
sg6
I0
ssS'/pdb\\pdb.munch.csv'
p93
(dp94
g3
I0
sg4
I0
sg5
I0
sg6
I0
ssS'/pdb\\pdb.jl2.csv'
p95
(dp96
g3
I0
sg4
I0
sg5
I0
sg6
I0
ssS'/pdb\\pdb.tvp.csv'
p97
(dp98
g3
I0
sg4
I0
sg5
I0
sg6
I0
ssS'/pdb\\pdb.bmk2.csv'
p99
(dp100
g3
I0
sg4
I0
sg5
I0
sg6
I0
ssS'/pdb\\pdb.gordo.csv'
p101
(dp102
g3
I0
sg4
I0
sg5
I0
sg6
I0
ssS'/pdb\\pdb.pogo.csv'
p103
(dp104
g3
I0
sg4
I0
sg5
I0
sg6
I0
ssS'/pdb\\pdb.kman.csv'
p105
(dp106
g3
I0
sg4
I0
sg5
I0
sg6
I0
ssS'/pdb\\pdb.oldtimer.csv'
p107
(dp108
g3
I0
sg4
I0
sg5
I0
sg6
I0
ssS'/pdb\\pdb.fich.csv'
p109
(dp110
g3
I0
sg4
I0
sg5
I0
sg6
I0
ssS'/pdb\\pdb.Timmy.csv'
p111
(dp112
g3
I0
sg4
I0
sg5
I0
sg6
I0
ssS'/pdb\\pdb.Thumper.csv'
p113
(dp114
g3
I0
sg4
I0
sg5
I0
sg6
I0
ssS'/pdb\\pdb.[rkt].csv'
p115
(dp116
g3
I0
sg4
I0
sg5
I0
sg6
I0
ssS'/pdb\\pdb.slandrum.csv'
p117
(dp118
g3
I0
sg4
I0
sg5
I0
sg6
I0
ssS'/pdb\\pdb.hawaiiboy.csv'
p119
(dp120
g3
I0
sg4
I0
sg5
I0
sg6
I0
ssS'/pdb\\pdb.zzzzzz.csv'
p121
(dp122
g3
I0
sg4
I0
sg5
I0
sg6
I0
ssS'/pdb\\pdb.leo.csv'
p123
(dp124
g3
I0
sg4
I0
sg5
I0
sg6
I0
ssS'/pdb\\pdb.Burge.csv'
p125
(dp126
g3
I0
sg4
I0
sg5
I0
sg6
I0
ssS'/pdb\\pdb.Rockfish.csv'
p127
(dp128
g3
I0
sg4
I0
sg5
I0
sg6
I0
ssS'/pdb\\pdb.Sharpei.csv'
p129
(dp130
g3
I0
sg4
I0
sg5
I0
sg6
I0
ssS'/pdb\\pdb.mrPink.csv'
p131
(dp132
g3
I0
sg4
I0
sg5
I0
sg6
I0
ssS'/pdb\\pdb.perfecdoh.csv'
p133
(dp134
g3
I0
sg4
I0
sg5
I0
sg6
I0
ssS'/pdb\\pdb.clarko.csv'
p135
(dp136
g3
I0
sg4
I0
sg5
I0
sg6
I0
ssS'/pdb\\pdb.jl1.csv'
p137
(dp138
g3
I0
sg4
I0
sg5
I0
sg6
I0
ssS'/pdb\\pdb.gfw.csv'
p139
(dp140
g3
I0
sg4
I0
sg5
I0
sg6
I0
ssS'/pdb\\pdb.Fsh2Shark.csv'
p141
(dp142
g3
I0
sg4
I0
sg5
I0
sg6
I0
ssS'/pdb\\pdb.gsr.csv'
p143
(dp144
g3
I0
sg4
I0
sg5
I0
sg6
I0
ssS'/pdb\\pdb.ATM^.csv'
p145
(dp146
g3
I0
sg4
I0
sg5
I0
sg6
I0
ssS'/pdb\\pdb.Jupiler.csv'
p147
(dp148
g3
I0
sg4
I0
sg5
I0
sg6
I0
ssS'/pdb\\pdb.Aesop.csv'
p149
(dp150
g3
I0
sg4
I0
sg5
I0
sg6
I0
ssS'/pdb\\pdb.__.csv'
p151
(dp152
g3
I0
sg4
I0
sg5
I0
sg6
I0
ssS'/pdb\\pdb.MrX3.csv'
p153
(dp154
g3
I0
sg4
I0
sg5
I0
sg6
I0
ssS'/pdb\\pdb.ACC.csv'
p155
(dp156
g3
I0
sg4
I0
sg5
I0
sg6
I0
ssS'/pdb\\pdb.Piranha.csv'
p157
(dp158
g3
I0
sg4
I0
sg5
I0
sg6
I0
ssS'/pdb\\pdb.sager[6].csv'
p159
(dp160
g3
I0
sg4
I0
sg5
I0
sg6
I0
ssS'/pdb\\pdb.jl.csv'
p161
(dp162
g3
I0
sg4
I0
sg5
I0
sg6
I0
ssS'/pdb\\pdb.foldbot0.csv'
p163
(dp164
g3
I0
sg4
I0
sg5
I0
sg6
I0
ssS'/pdb\\pdb.Dr_Devo.csv'
p165
(dp166
g3
I0
sg4
I0
sg5
I0
sg6
I0
ssS'/pdb\\pdb.Quetzal.csv'
p167
(dp168
g3
I0
sg4
I0
sg5
I0
sg6
I0
ssS'/pdb\\pdb.sager[0].csv'
p169
(dp170
g3
I0
sg4
I0
sg5
I0
sg6
I0
ssS'/pdb\\pdb.kal.csv'
p171
(dp172
g3
I0
sg4
I0
sg5
I0
sg6
I0
ssS'/pdb\\pdb.jrx.csv'
p173
(dp174
g3
I0
sg4
I0
sg5
I0
sg6
I0
ssS'/pdb\\pdb.dagger.csv'
p175
(dp176
g3
I0
sg4
I0
sg5
I0
sg6
I0
ssS'/pdb\\pdb.or.csv'
p177
(dp178
g3
I0
sg4
I0
sg5
I0
sg6
I0
ssS'/pdb\\pdb.DanSal.csv'
p179
(dp180
g3
I0
sg4
I0
sg5
I0
sg6
I0
ssS'/pdb\\pdb.Gringo.csv'
p181
(dp182
g3
I0
sg4
I0
sg5
I0
sg6
I0
ssS'/pdb\\pdb.bwana.csv'
p183
(dp184
g3
I0
sg4
I0
sg5
I0
sg6
I0
ssS'/pdb\\pdb.Amerikan.csv'
p185
(dp186
g3
I0
sg4
I0
sg5
I0
sg6
I0
ssS'/pdb\\pdb.txt.csv'
p187
(dp188
g3
I0
sg4
I0
sg5
I0
sg6
I0
ssS'/pdb\\pdb.RootAccou.csv'
p189
(dp190
g3
I0
sg4
I0
sg5
I0
sg6
I0
ssS'/pdb\\pdb.schmengie.csv'
p191
(dp192
g3
I0
sg4
I0
sg5
I0
sg6
I0
ssS'/pdb\\pdb.dbarnett.csv'
p193
(dp194
g3
I0
sg4
I0
sg5
I0
sg6
I0
ss.